target datalayout = "e-m:e-p270:32:32-p271:32:32-p272:64:64-i64:64-i128:128-f80:128-n8:16:32:64-S128"
target triple = "x86_64-pc-linux-gnu"

%struct.H5VL_loc_params_t = type { i32, i32, %union.anon }
%union.anon = type { %struct.H5VL_loc_by_idx }
%struct.H5VL_loc_by_idx = type { ptr, i32, i32, i64, i64 }
%struct.H5VL_object_specific_args_t = type { i32, %union.anon.3 }
%union.anon.3 = type { %struct.H5VL_object_visit_args_t }
%struct.H5VL_object_visit_args_t = type { i32, i32, i32, ptr, ptr }
%struct.anon.4 = type { i32 }

@H5_libinit_g = external global i8, align 1
@H5_libterm_g = external global i8, align 1
@.str = private unnamed_addr constant [97 x i8] c"generated/home/dtcxzyw/WorkSpace/Projects/compilers/llvm-opt-benchmark/bench/hdf5/hdf5/src/H5O.c\00", align 1
@H5E_FUNC_g = external global i64, align 8
@H5E_CANTINIT_g = external global i64, align 8
@.str.1 = private unnamed_addr constant [30 x i8] c"library initialization failed\00", align 1
@H5E_CANTSET_g = external global i64, align 8
@.str.2 = private unnamed_addr constant [22 x i8] c"can't set API context\00", align 1
@H5E_OHDR_g = external global i64, align 8
@H5E_ARGS_g = external global i64, align 8
@H5E_BADTYPE_g = external global i64, align 8
@.str.21 = private unnamed_addr constant [28 x i8] c"invalid location identifier\00", align 1
@H5P_LST_DATASET_XFER_ID_g = external global i64, align 8
@.str.44 = private unnamed_addr constant [36 x i8] c"can't set access property list info\00", align 1
@H5E_LINKCOUNT_g = external global i64, align 8
@.str.48 = private unnamed_addr constant [35 x i8] c"modifying object link count failed\00", align 1
@__func__.H5Odecr_refcount = private unnamed_addr constant [17 x i8] c"H5Odecr_refcount\00", align 1

; Function Attrs: nounwind uwtable
define i32 @H5Odecr_refcount(i64 noundef %0) #0 {
  %2 = alloca i64, align 8
  %3 = alloca ptr, align 8
  %4 = alloca %struct.H5VL_object_specific_args_t, align 8
  %5 = alloca %struct.H5VL_loc_params_t, align 8
  %6 = alloca i32, align 4
  %7 = alloca i8, align 1
  %8 = alloca i8, align 1
  store i64 %0, ptr %2, align 8
  store i32 0, ptr %6, align 4
  store i8 0, ptr %7, align 1
  store i8 0, ptr %8, align 1
  %9 = load i8, ptr @H5_libinit_g, align 1
  %10 = trunc i8 %9 to i1
  br i1 %10, label %15, label %11

11:                                               ; preds = %1
  %12 = load i8, ptr @H5_libterm_g, align 1
  %13 = trunc i8 %12 to i1
  %14 = xor i1 %13, true
  br label %15

15:                                               ; preds = %11, %1
  %16 = phi i1 [ false, %1 ], [ %14, %11 ]
  %17 = xor i1 %16, true
  %18 = xor i1 %17, true
  %19 = zext i1 %18 to i32
  %20 = sext i32 %19 to i64
  %21 = icmp ne i64 %20, 0
  br i1 %21, label %22, label %46

22:                                               ; preds = %15
  %23 = call i32 @H5_init_library()
  %24 = icmp slt i32 %23, 0
  %25 = xor i1 %24, true
  %26 = xor i1 %25, true
  %27 = zext i1 %26 to i32
  %28 = sext i32 %27 to i64
  %29 = icmp ne i64 %28, 0
  br i1 %29, label %30, label %45

30:                                               ; preds = %22
  br label %31

31:                                               ; preds = %30
  br label %32

32:                                               ; preds = %31
  br label %33

33:                                               ; preds = %32
  %34 = load i64, ptr @H5E_FUNC_g, align 8
  %35 = load i64, ptr @H5E_CANTINIT_g, align 8
  %36 = call i32 (ptr, ptr, i32, i64, i64, ptr, ...) @H5E_printf_stack(ptr noundef @.str, ptr noundef @__func__.H5Odecr_refcount, i32 noundef 963, i64 noundef %34, i64 noundef %35, ptr noundef @.str.1)
  br label %37

37:                                               ; preds = %33
  store i8 1, ptr %8, align 1
  %38 = load i8, ptr %8, align 1
  %39 = trunc i8 %38 to i1
  %40 = zext i1 %39 to i8
  store i8 %40, ptr %8, align 1
  br label %41

41:                                               ; preds = %37
  br label %42

42:                                               ; preds = %41
  store i32 -1, ptr %6, align 4
  br label %137

43:                                               ; No predecessors!
  br label %44

44:                                               ; preds = %43
  br label %45

45:                                               ; preds = %44, %22
  br label %46

46:                                               ; preds = %45, %15
  %47 = call i32 @H5CX_push()
  %48 = icmp slt i32 %47, 0
  %49 = xor i1 %48, true
  %50 = xor i1 %49, true
  %51 = zext i1 %50 to i32
  %52 = sext i32 %51 to i64
  %53 = icmp ne i64 %52, 0
  br i1 %53, label %54, label %69

54:                                               ; preds = %46
  br label %55

55:                                               ; preds = %54
  br label %56

56:                                               ; preds = %55
  br label %57

57:                                               ; preds = %56
  %58 = load i64, ptr @H5E_FUNC_g, align 8
  %59 = load i64, ptr @H5E_CANTSET_g, align 8
  %60 = call i32 (ptr, ptr, i32, i64, i64, ptr, ...) @H5E_printf_stack(ptr noundef @.str, ptr noundef @__func__.H5Odecr_refcount, i32 noundef 963, i64 noundef %58, i64 noundef %59, ptr noundef @.str.2)
  br label %61

61:                                               ; preds = %57
  store i8 1, ptr %8, align 1
  %62 = load i8, ptr %8, align 1
  %63 = trunc i8 %62 to i1
  %64 = zext i1 %63 to i8
  store i8 %64, ptr %8, align 1
  br label %65

65:                                               ; preds = %61
  br label %66

66:                                               ; preds = %65
  store i32 -1, ptr %6, align 4
  br label %137

67:                                               ; No predecessors!
  br label %68

68:                                               ; preds = %67
  br label %70

69:                                               ; preds = %46
  store i8 1, ptr %7, align 1
  br label %70

70:                                               ; preds = %69, %68
  %71 = call i32 @H5E_clear_stack()
  %72 = getelementptr inbounds %struct.H5VL_loc_params_t, ptr %5, i32 0, i32 1
  store i32 0, ptr %72, align 4
  %73 = load i64, ptr %2, align 8
  %74 = call i32 @H5I_get_type(i64 noundef %73)
  %75 = getelementptr inbounds %struct.H5VL_loc_params_t, ptr %5, i32 0, i32 0
  store i32 %74, ptr %75, align 8
  %76 = load i64, ptr %2, align 8
  %77 = call ptr @H5VL_vol_object(i64 noundef %76)
  store ptr %77, ptr %3, align 8
  %78 = icmp eq ptr null, %77
  br i1 %78, label %79, label %94

79:                                               ; preds = %70
  br label %80

80:                                               ; preds = %79
  br label %81

81:                                               ; preds = %80
  br label %82

82:                                               ; preds = %81
  %83 = load i64, ptr @H5E_ARGS_g, align 8
  %84 = load i64, ptr @H5E_BADTYPE_g, align 8
  %85 = call i32 (ptr, ptr, i32, i64, i64, ptr, ...) @H5E_printf_stack(ptr noundef @.str, ptr noundef @__func__.H5Odecr_refcount, i32 noundef 970, i64 noundef %83, i64 noundef %84, ptr noundef @.str.21)
  br label %86

86:                                               ; preds = %82
  store i8 1, ptr %8, align 1
  %87 = load i8, ptr %8, align 1
  %88 = trunc i8 %87 to i1
  %89 = zext i1 %88 to i8
  store i8 %89, ptr %8, align 1
  br label %90

90:                                               ; preds = %86
  br label %91

91:                                               ; preds = %90
  store i32 -1, ptr %6, align 4
  br label %137

92:                                               ; No predecessors!
  br label %93

93:                                               ; preds = %92
  br label %94

94:                                               ; preds = %93, %70
  %95 = load i64, ptr %2, align 8
  %96 = call i32 @H5CX_set_loc(i64 noundef %95)
  %97 = icmp slt i32 %96, 0
  br i1 %97, label %98, label %113

98:                                               ; preds = %94
  br label %99

99:                                               ; preds = %98
  br label %100

100:                                              ; preds = %99
  br label %101

101:                                              ; preds = %100
  %102 = load i64, ptr @H5E_OHDR_g, align 8
  %103 = load i64, ptr @H5E_CANTSET_g, align 8
  %104 = call i32 (ptr, ptr, i32, i64, i64, ptr, ...) @H5E_printf_stack(ptr noundef @.str, ptr noundef @__func__.H5Odecr_refcount, i32 noundef 974, i64 noundef %102, i64 noundef %103, ptr noundef @.str.44)
  br label %105

105:                                              ; preds = %101
  store i8 1, ptr %8, align 1
  %106 = load i8, ptr %8, align 1
  %107 = trunc i8 %106 to i1
  %108 = zext i1 %107 to i8
  store i8 %108, ptr %8, align 1
  br label %109

109:                                              ; preds = %105
  br label %110

110:                                              ; preds = %109
  store i32 -1, ptr %6, align 4
  br label %137

111:                                              ; No predecessors!
  br label %112

112:                                              ; preds = %111
  br label %113

113:                                              ; preds = %112, %94
  %114 = getelementptr inbounds %struct.H5VL_object_specific_args_t, ptr %4, i32 0, i32 0
  store i32 0, ptr %114, align 8
  %115 = getelementptr inbounds %struct.H5VL_object_specific_args_t, ptr %4, i32 0, i32 1
  %116 = getelementptr inbounds %struct.anon.4, ptr %115, i32 0, i32 0
  store i32 -1, ptr %116, align 8
  %117 = load ptr, ptr %3, align 8
  %118 = load i64, ptr @H5P_LST_DATASET_XFER_ID_g, align 8
  %119 = call i32 @H5VL_object_specific(ptr noundef %117, ptr noundef %5, ptr noundef %4, i64 noundef %118, ptr noundef null)
  %120 = icmp slt i32 %119, 0
  br i1 %120, label %121, label %136

121:                                              ; preds = %113
  br label %122

122:                                              ; preds = %121
  br label %123

123:                                              ; preds = %122
  br label %124

124:                                              ; preds = %123
  %125 = load i64, ptr @H5E_OHDR_g, align 8
  %126 = load i64, ptr @H5E_LINKCOUNT_g, align 8
  %127 = call i32 (ptr, ptr, i32, i64, i64, ptr, ...) @H5E_printf_stack(ptr noundef @.str, ptr noundef @__func__.H5Odecr_refcount, i32 noundef 983, i64 noundef %125, i64 noundef %126, ptr noundef @.str.48)
  br label %128

128:                                              ; preds = %124
  store i8 1, ptr %8, align 1
  %129 = load i8, ptr %8, align 1
  %130 = trunc i8 %129 to i1
  %131 = zext i1 %130 to i8
  store i8 %131, ptr %8, align 1
  br label %132

132:                                              ; preds = %128
  br label %133

133:                                              ; preds = %132
  store i32 -1, ptr %6, align 4
  br label %137

134:                                              ; No predecessors!
  br label %135

135:                                              ; preds = %134
  br label %136

136:                                              ; preds = %135, %113
  br label %137

137:                                              ; preds = %136, %133, %110, %91, %66, %42
  %138 = load i8, ptr %7, align 1
  %139 = trunc i8 %138 to i1
  %140 = xor i1 %139, true
  %141 = xor i1 %140, true
  %142 = zext i1 %141 to i32
  %143 = sext i32 %142 to i64
  %144 = icmp ne i64 %143, 0
  br i1 %144, label %145, label %147

145:                                              ; preds = %137
  %146 = call i32 @H5CX_pop(i1 noundef zeroext true)
  store i8 0, ptr %7, align 1
  br label %147

147:                                              ; preds = %145, %137
  %148 = load i8, ptr %8, align 1
  %149 = trunc i8 %148 to i1
  %150 = xor i1 %149, true
  %151 = xor i1 %150, true
  %152 = zext i1 %151 to i32
  %153 = sext i32 %152 to i64
  %154 = icmp ne i64 %153, 0
  br i1 %154, label %155, label %157

155:                                              ; preds = %147
  %156 = call i32 @H5E_dump_api_stack()
  br label %157

157:                                              ; preds = %155, %147
  %158 = load i32, ptr %6, align 4
  ret i32 %158
}