; Function Attrs: nounwind uwtable
define range(i32 -1, 1) i32 @H5Odecr_refcount(i64 noundef %0) local_unnamed_addr #0 {
  %2 = alloca %struct.H5VL_object_specific_args_t, align 8
  %3 = alloca %struct.H5VL_loc_params_t, align 8
  %4 = load i8, ptr @H5_libinit_g, align 1
  %5 = trunc i8 %4 to i1
  %6 = load i8, ptr @H5_libterm_g, align 1
  %7 = trunc i8 %6 to i1
  %8 = select i1 %5, i1 true, i1 %7
  br i1 %8, label %16, label %9

9:                                                ; preds = %1
  %10 = tail call i32 @H5_init_library() #4
  %11 = icmp slt i32 %10, 0
  br i1 %11, label %12, label %16

12:                                               ; preds = %9
  %13 = load i64, ptr @H5E_FUNC_g, align 8
  %14 = load i64, ptr @H5E_CANTINIT_g, align 8
  %15 = tail call i32 (ptr, ptr, i32, i64, i64, ptr, ...) @H5E_printf_stack(ptr noundef nonnull @.str, ptr noundef nonnull @__func__.H5Odecr_refcount, i32 noundef 963, i64 noundef %13, i64 noundef %14, ptr noundef nonnull @.str.1) #4
  br label %.thread22

16:                                               ; preds = %9, %1
  %17 = tail call i32 @H5CX_push() #4
  %18 = icmp slt i32 %17, 0
  br i1 %18, label %19, label %23

19:                                               ; preds = %16
  %20 = load i64, ptr @H5E_FUNC_g, align 8
  %21 = load i64, ptr @H5E_CANTSET_g, align 8
  %22 = tail call i32 (ptr, ptr, i32, i64, i64, ptr, ...) @H5E_printf_stack(ptr noundef nonnull @.str, ptr noundef nonnull @__func__.H5Odecr_refcount, i32 noundef 963, i64 noundef %20, i64 noundef %21, ptr noundef nonnull @.str.2) #4
  br label %.thread22

23:                                               ; preds = %16
  %24 = tail call i32 @H5E_clear_stack() #4
  %25 = getelementptr inbounds i8, ptr %3, i64 4
  store i32 0, ptr %25, align 4
  %26 = tail call i32 @H5I_get_type(i64 noundef %0) #4
  store i32 %26, ptr %3, align 8
  %27 = tail call ptr @H5VL_vol_object(i64 noundef %0) #4
  %28 = icmp eq ptr %27, null
  br i1 %28, label %29, label %33

29:                                               ; preds = %23
  %30 = load i64, ptr @H5E_ARGS_g, align 8
  %31 = load i64, ptr @H5E_BADTYPE_g, align 8
  %32 = tail call i32 (ptr, ptr, i32, i64, i64, ptr, ...) @H5E_printf_stack(ptr noundef nonnull @.str, ptr noundef nonnull @__func__.H5Odecr_refcount, i32 noundef 970, i64 noundef %30, i64 noundef %31, ptr noundef nonnull @.str.21) #4
  br label %.thread28

33:                                               ; preds = %23
  %34 = tail call i32 @H5CX_set_loc(i64 noundef %0) #4
  %35 = icmp slt i32 %34, 0
  br i1 %35, label %36, label %40

36:                                               ; preds = %33
  %37 = load i64, ptr @H5E_OHDR_g, align 8
  %38 = load i64, ptr @H5E_CANTSET_g, align 8
  %39 = tail call i32 (ptr, ptr, i32, i64, i64, ptr, ...) @H5E_printf_stack(ptr noundef nonnull @.str, ptr noundef nonnull @__func__.H5Odecr_refcount, i32 noundef 974, i64 noundef %37, i64 noundef %38, ptr noundef nonnull @.str.44) #4
  br label %.thread28

40:                                               ; preds = %33
  store i32 0, ptr %2, align 8
  %41 = getelementptr inbounds i8, ptr %2, i64 8
  store i32 -1, ptr %41, align 8
  %42 = load i64, ptr @H5P_LST_DATASET_XFER_ID_g, align 8
  %43 = call i32 @H5VL_object_specific(ptr noundef nonnull %27, ptr noundef nonnull %3, ptr noundef nonnull %2, i64 noundef %42, ptr noundef null) #4
  %44 = icmp slt i32 %43, 0
  br i1 %44, label %45, label %50

45:                                               ; preds = %40
  %46 = load i64, ptr @H5E_OHDR_g, align 8
  %47 = load i64, ptr @H5E_LINKCOUNT_g, align 8
  %48 = call i32 (ptr, ptr, i32, i64, i64, ptr, ...) @H5E_printf_stack(ptr noundef nonnull @.str, ptr noundef nonnull @__func__.H5Odecr_refcount, i32 noundef 983, i64 noundef %46, i64 noundef %47, ptr noundef nonnull @.str.48) #4
  br label %.thread28

.thread28:                                        ; preds = %45, %36, %29
  %49 = call i32 @H5CX_pop(i1 noundef zeroext true) #4
  br label %.thread22

50:                                               ; preds = %40
  %51 = call i32 @H5CX_pop(i1 noundef zeroext true) #4
  br label %53

.thread22:                                        ; preds = %19, %12, %.thread28
  %52 = call i32 @H5E_dump_api_stack() #4
  br label %53

53:                                               ; preds = %50, %.thread22
  %.0121725 = phi i32 [ -1, %.thread22 ], [ 0, %50 ]
  ret i32 %.0121725
}